target datalayout = "e-m:e-p270:32:32-p271:32:32-p272:64:64-i64:64-i128:128-f80:128-n8:16:32:64-S128"
target triple = "x86_64-pc-linux-gnu"

; Function Attrs: nounwind uwtable
define i32 @BacManReadBacNameAndNums(ptr noundef %0, ptr noundef %1, ptr noundef %2, ptr noundef %3, ptr noundef %4) #0 {
  %6 = alloca i32, align 4
  %7 = alloca ptr, align 8
  %8 = alloca ptr, align 8
  %9 = alloca ptr, align 8
  %10 = alloca ptr, align 8
  %11 = alloca ptr, align 8
  store ptr %0, ptr %7, align 8
  store ptr %1, ptr %8, align 8
  store ptr %2, ptr %9, align 8
  store ptr %3, ptr %10, align 8
  store ptr %4, ptr %11, align 8
  %12 = load ptr, ptr %11, align 8
  store i32 -1, ptr %12, align 4
  %13 = load ptr, ptr %10, align 8
  store i32 -1, ptr %13, align 4
  %14 = load ptr, ptr %9, align 8
  store i32 -1, ptr %14, align 4
  %15 = load ptr, ptr %8, align 8
  store i32 -1, ptr %15, align 4
  br label %16

16:                                               ; preds = %28, %5
  %17 = load ptr, ptr %7, align 8
  %18 = load i8, ptr %17, align 1
  %19 = sext i8 %18 to i32
  %20 = icmp ne i32 %19, 0
  br i1 %20, label %21, label %26

21:                                               ; preds = %16
  %22 = load ptr, ptr %7, align 8
  %23 = load i8, ptr %22, align 1
  %24 = sext i8 %23 to i32
  %25 = icmp ne i32 %24, 32
  br label %26

26:                                               ; preds = %21, %16
  %27 = phi i1 [ false, %16 ], [ %25, %21 ]
  br i1 %27, label %28, label %31

28:                                               ; preds = %26
  %29 = load ptr, ptr %7, align 8
  %30 = getelementptr inbounds i8, ptr %29, i32 1
  store ptr %30, ptr %7, align 8
  br label %16, !llvm.loop !6

31:                                               ; preds = %26
  %32 = load ptr, ptr %7, align 8
  %33 = load i8, ptr %32, align 1
  %34 = icmp ne i8 %33, 0
  br i1 %34, label %36, label %35

35:                                               ; preds = %31
  store i32 0, ptr %6, align 4
  br label %117

36:                                               ; preds = %31
  %37 = load ptr, ptr %7, align 8
  store i8 0, ptr %37, align 1
  %38 = load ptr, ptr %7, align 8
  %39 = getelementptr inbounds i8, ptr %38, i32 1
  store ptr %39, ptr %7, align 8
  %40 = call i32 @atoi(ptr noundef %39) #9
  %41 = load ptr, ptr %8, align 8
  store i32 %40, ptr %41, align 4
  br label %42

42:                                               ; preds = %54, %36
  %43 = load ptr, ptr %7, align 8
  %44 = load i8, ptr %43, align 1
  %45 = sext i8 %44 to i32
  %46 = icmp ne i32 %45, 0
  br i1 %46, label %47, label %52

47:                                               ; preds = %42
  %48 = load ptr, ptr %7, align 8
  %49 = load i8, ptr %48, align 1
  %50 = sext i8 %49 to i32
  %51 = icmp ne i32 %50, 32
  br label %52

52:                                               ; preds = %47, %42
  %53 = phi i1 [ false, %42 ], [ %51, %47 ]
  br i1 %53, label %54, label %57

54:                                               ; preds = %52
  %55 = load ptr, ptr %7, align 8
  %56 = getelementptr inbounds i8, ptr %55, i32 1
  store ptr %56, ptr %7, align 8
  br label %42, !llvm.loop !7

57:                                               ; preds = %52
  %58 = load ptr, ptr %7, align 8
  %59 = load i8, ptr %58, align 1
  %60 = icmp ne i8 %59, 0
  br i1 %60, label %62, label %61

61:                                               ; preds = %57
  store i32 0, ptr %6, align 4
  br label %117

62:                                               ; preds = %57
  %63 = load ptr, ptr %7, align 8
  %64 = getelementptr inbounds i8, ptr %63, i32 1
  store ptr %64, ptr %7, align 8
  %65 = call i32 @atoi(ptr noundef %64) #9
  %66 = load ptr, ptr %9, align 8
  store i32 %65, ptr %66, align 4
  br label %67

67:                                               ; preds = %79, %62
  %68 = load ptr, ptr %7, align 8
  %69 = load i8, ptr %68, align 1
  %70 = sext i8 %69 to i32
  %71 = icmp ne i32 %70, 0
  br i1 %71, label %72, label %77

72:                                               ; preds = %67
  %73 = load ptr, ptr %7, align 8
  %74 = load i8, ptr %73, align 1
  %75 = sext i8 %74 to i32
  %76 = icmp ne i32 %75, 32
  br label %77

77:                                               ; preds = %72, %67
  %78 = phi i1 [ false, %67 ], [ %76, %72 ]
  br i1 %78, label %79, label %82

79:                                               ; preds = %77
  %80 = load ptr, ptr %7, align 8
  %81 = getelementptr inbounds i8, ptr %80, i32 1
  store ptr %81, ptr %7, align 8
  br label %67, !llvm.loop !8

82:                                               ; preds = %77
  %83 = load ptr, ptr %7, align 8
  %84 = load i8, ptr %83, align 1
  %85 = icmp ne i8 %84, 0
  br i1 %85, label %87, label %86

86:                                               ; preds = %82
  store i32 1, ptr %6, align 4
  br label %117

87:                                               ; preds = %82
  %88 = load ptr, ptr %7, align 8
  %89 = getelementptr inbounds i8, ptr %88, i32 1
  store ptr %89, ptr %7, align 8
  %90 = call i32 @atoi(ptr noundef %89) #9
  %91 = load ptr, ptr %10, align 8
  store i32 %90, ptr %91, align 4
  br label %92

92:                                               ; preds = %104, %87
  %93 = load ptr, ptr %7, align 8
  %94 = load i8, ptr %93, align 1
  %95 = sext i8 %94 to i32
  %96 = icmp ne i32 %95, 0
  br i1 %96, label %97, label %102

97:                                               ; preds = %92
  %98 = load ptr, ptr %7, align 8
  %99 = load i8, ptr %98, align 1
  %100 = sext i8 %99 to i32
  %101 = icmp ne i32 %100, 32
  br label %102

102:                                              ; preds = %97, %92
  %103 = phi i1 [ false, %92 ], [ %101, %97 ]
  br i1 %103, label %104, label %107

104:                                              ; preds = %102
  %105 = load ptr, ptr %7, align 8
  %106 = getelementptr inbounds i8, ptr %105, i32 1
  store ptr %106, ptr %7, align 8
  br label %92, !llvm.loop !9

107:                                              ; preds = %102
  %108 = load ptr, ptr %7, align 8
  %109 = load i8, ptr %108, align 1
  %110 = icmp ne i8 %109, 0
  br i1 %110, label %112, label %111

111:                                              ; preds = %107
  store i32 1, ptr %6, align 4
  br label %117

112:                                              ; preds = %107
  %113 = load ptr, ptr %7, align 8
  %114 = getelementptr inbounds i8, ptr %113, i32 1
  store ptr %114, ptr %7, align 8
  %115 = call i32 @atoi(ptr noundef %114) #9
  %116 = load ptr, ptr %11, align 8
  store i32 %115, ptr %116, align 4
  store i32 1, ptr %6, align 4
  br label %117

117:                                              ; preds = %112, %111, %86, %61, %35
  %118 = load i32, ptr %6, align 4
  ret i32 %118
}