; Function Attrs: nofree nounwind memory(read, argmem: readwrite) uwtable
define range(i32 0, 2) i32 @BacManReadBacNameAndNums(ptr noundef captures(none) %0, ptr noundef writeonly captures(none) initializes((0, 4)) %1, ptr noundef writeonly captures(none) initializes((0, 4)) %2, ptr noundef writeonly captures(none) initializes((0, 4)) %3, ptr noundef writeonly captures(none) initializes((0, 4)) %4) local_unnamed_addr #1 {
  store i32 -1, ptr %4, align 4
  store i32 -1, ptr %3, align 4
  store i32 -1, ptr %2, align 4
  store i32 -1, ptr %1, align 4
  br label %6

6:                                                ; preds = %8, %5
  %.035 = phi ptr [ %0, %5 ], [ %9, %8 ]
  %7 = load i8, ptr %.035, align 1
  switch i8 %7, label %8 [
    i8 0, label %.loopexit
    i8 32, label %10
  ]

8:                                                ; preds = %6
  %9 = getelementptr inbounds nuw i8, ptr %.035, i64 1
  br label %6, !llvm.loop !6

10:                                               ; preds = %6
  store i8 0, ptr %.035, align 1
  %11 = getelementptr inbounds nuw i8, ptr %.035, i64 1
  %12 = tail call i32 @atoi(ptr noundef nonnull %11) #17
  store i32 %12, ptr %1, align 4
  br label %13

13:                                               ; preds = %15, %10
  %.1 = phi ptr [ %11, %10 ], [ %16, %15 ]
  %14 = load i8, ptr %.1, align 1
  switch i8 %14, label %15 [
    i8 0, label %.loopexit
    i8 32, label %17
  ]

15:                                               ; preds = %13
  %16 = getelementptr inbounds nuw i8, ptr %.1, i64 1
  br label %13, !llvm.loop !7

17:                                               ; preds = %13
  %18 = getelementptr inbounds nuw i8, ptr %.1, i64 1
  %19 = tail call i32 @atoi(ptr noundef nonnull %18) #17
  store i32 %19, ptr %2, align 4
  br label %20

20:                                               ; preds = %22, %17
  %.2 = phi ptr [ %18, %17 ], [ %23, %22 ]
  %21 = load i8, ptr %.2, align 1
  switch i8 %21, label %22 [
    i8 0, label %.loopexit
    i8 32, label %24
  ]

22:                                               ; preds = %20
  %23 = getelementptr inbounds nuw i8, ptr %.2, i64 1
  br label %20, !llvm.loop !8

24:                                               ; preds = %20
  %25 = getelementptr inbounds nuw i8, ptr %.2, i64 1
  %26 = tail call i32 @atoi(ptr noundef nonnull %25) #17
  store i32 %26, ptr %3, align 4
  br label %27

27:                                               ; preds = %29, %24
  %.3 = phi ptr [ %25, %24 ], [ %30, %29 ]
  %28 = load i8, ptr %.3, align 1
  switch i8 %28, label %29 [
    i8 0, label %.loopexit
    i8 32, label %31
  ]

29:                                               ; preds = %27
  %30 = getelementptr inbounds nuw i8, ptr %.3, i64 1
  br label %27, !llvm.loop !9

31:                                               ; preds = %27
  %32 = getelementptr inbounds nuw i8, ptr %.3, i64 1
  %33 = tail call i32 @atoi(ptr noundef nonnull %32) #17
  store i32 %33, ptr %4, align 4
  br label %.loopexit

.loopexit:                                        ; preds = %6, %13, %20, %27, %31
  %.0 = phi i32 [ 1, %31 ], [ 1, %27 ], [ 1, %20 ], [ 0, %13 ], [ 0, %6 ]
  ret i32 %.0
}